target datalayout = "e-m:e-p270:32:32-p271:32:32-p272:64:64-i64:64-i128:128-f80:128-n8:16:32:64-S128"
target triple = "x86_64-pc-linux-gnu"

@.str.3 = private unnamed_addr constant [12 x i8] c"bitstring.c\00", align 1
@__func__.slurm_bit_realloc = private unnamed_addr constant [18 x i8] c"slurm_bit_realloc\00", align 1

; Function Attrs: nounwind uwtable
define dso_local ptr @slurm_bit_realloc(ptr noundef %0, i64 noundef %1) #0 {
  %3 = alloca ptr, align 8
  %4 = alloca i64, align 8
  store ptr %0, ptr %3, align 8
  store i64 %1, ptr %4, align 8
  br label %5

5:                                                ; preds = %2
  br label %6

6:                                                ; preds = %5
  br label %7

7:                                                ; preds = %6
  br label %8

8:                                                ; preds = %7
  %9 = load ptr, ptr %3, align 8
  %10 = load i64, ptr %4, align 8
  %11 = add i64 %10, 63
  %12 = lshr i64 %11, 6
  %13 = add i64 %12, 2
  %14 = call ptr @slurm_xrecalloc(ptr noundef %9, i64 noundef %13, i64 noundef 8, i1 noundef zeroext true, i1 noundef zeroext false, ptr noundef @.str.3, i32 noundef 349, ptr noundef @__func__.slurm_bit_realloc)
  br label %15

15:                                               ; preds = %8
  br label %16

16:                                               ; preds = %15
  %17 = load i64, ptr %4, align 8
  %18 = load ptr, ptr %3, align 8
  %19 = load ptr, ptr %18, align 8
  %20 = getelementptr inbounds i64, ptr %19, i64 1
  store i64 %17, ptr %20, align 8
  %21 = load ptr, ptr %3, align 8
  %22 = load ptr, ptr %21, align 8
  ret ptr %22
}