; Function Attrs: nounwind uwtable
define dso_local ptr @slurm_bit_realloc(ptr noundef %0, i64 noundef %1) local_unnamed_addr #0 {
  %3 = add i64 %1, 63
  %4 = lshr i64 %3, 6
  %5 = add nuw nsw i64 %4, 2
  %6 = tail call ptr @slurm_xrecalloc(ptr noundef %0, i64 noundef %5, i64 noundef 8, i1 noundef zeroext true, i1 noundef zeroext false, ptr noundef nonnull @.str.3, i32 noundef 349, ptr noundef nonnull @__func__.slurm_bit_realloc) #17
  %7 = load ptr, ptr %0, align 8
  %8 = getelementptr inbounds nuw i8, ptr %7, i64 8
  store i64 %1, ptr %8, align 8
  %9 = load ptr, ptr %0, align 8
  ret ptr %9
}